target datalayout = "e-m:e-p270:32:32-p271:32:32-p272:64:64-i64:64-i128:128-f80:128-n8:16:32:64-S128"
target triple = "x86_64-pc-linux-gnu"

; Function Attrs: nounwind uwtable
define dso_local i32 @xdl_hashbits(i32 noundef %0) #0 {
  %2 = alloca i32, align 4
  %3 = alloca i32, align 4
  %4 = alloca i32, align 4
  store i32 %0, ptr %2, align 4, !tbaa !15
  call void @llvm.lifetime.start.p0(i64 4, ptr %3) #6
  store i32 1, ptr %3, align 4, !tbaa !15
  call void @llvm.lifetime.start.p0(i64 4, ptr %4) #6
  store i32 0, ptr %4, align 4, !tbaa !15
  br label %5

5:                                                ; preds = %16, %1
  %6 = load i32, ptr %3, align 4, !tbaa !15
  %7 = load i32, ptr %2, align 4, !tbaa !15
  %8 = icmp ult i32 %6, %7
  br i1 %8, label %9, label %13

9:                                                ; preds = %5
  %10 = load i32, ptr %4, align 4, !tbaa !15
  %11 = zext i32 %10 to i64
  %12 = icmp ult i64 %11, 32
  br label %13

13:                                               ; preds = %9, %5
  %14 = phi i1 [ false, %5 ], [ %12, %9 ]
  br i1 %14, label %15, label %21

15:                                               ; preds = %13
  br label %16

16:                                               ; preds = %15
  %17 = load i32, ptr %3, align 4, !tbaa !15
  %18 = shl i32 %17, 1
  store i32 %18, ptr %3, align 4, !tbaa !15
  %19 = load i32, ptr %4, align 4, !tbaa !15
  %20 = add i32 %19, 1
  store i32 %20, ptr %4, align 4, !tbaa !15
  br label %5, !llvm.loop !66

21:                                               ; preds = %13
  %22 = load i32, ptr %4, align 4, !tbaa !15
  %23 = icmp ne i32 %22, 0
  br i1 %23, label %24, label %26

24:                                               ; preds = %21
  %25 = load i32, ptr %4, align 4, !tbaa !15
  br label %27

26:                                               ; preds = %21
  br label %27

27:                                               ; preds = %26, %24
  %28 = phi i32 [ %25, %24 ], [ 1, %26 ]
  call void @llvm.lifetime.end.p0(i64 4, ptr %4) #6
  call void @llvm.lifetime.end.p0(i64 4, ptr %3) #6
  ret i32 %28
}