; Function Attrs: nofree norecurse nosync nounwind memory(none) uwtable
define dso_local range(i32 1, 33) i32 @xdl_hashbits(i32 noundef %0) local_unnamed_addr #0 {
  %2 = icmp ugt i32 %0, 1
  br i1 %2, label %.lr.ph, label %._crit_edge

.lr.ph:                                           ; preds = %1, %.lr.ph
  %.09 = phi i32 [ %4, %.lr.ph ], [ 0, %1 ]
  %.078 = phi i32 [ %3, %.lr.ph ], [ 1, %1 ]
  %3 = shl i32 %.078, 1
  %4 = add nuw nsw i32 %.09, 1
  %5 = icmp ult i32 %3, %0
  %6 = icmp samesign ult i32 %.09, 31
  %7 = select i1 %5, i1 %6, i1 false
  br i1 %7, label %.lr.ph, label %._crit_edge, !llvm.loop !49

._crit_edge:                                      ; preds = %.lr.ph, %1
  %.0.lcssa = phi i32 [ 0, %1 ], [ %4, %.lr.ph ]
  %8 = tail call i32 @llvm.umax.i32(i32 %.0.lcssa, i32 1)
  ret i32 %8
}